; Function Attrs: mustprogress nofree norecurse nosync nounwind memory(readwrite, inaccessiblemem: none) uwtable
define void @_ZN4ofbx7TextureC2ERKNS_5SceneERKNS_8IElementE(ptr noundef nonnull align 8 dereferenceable(176) %0, ptr noundef nonnull align 8 dereferenceable(296) %1, ptr noundef nonnull align 8 dereferenceable(8) %2) unnamed_addr #5 align 2 {
  store ptr getelementptr inbounds ({ [5 x ptr] }, ptr @_ZTVN4ofbx6ObjectE, i64 0, i32 0, i64 2), ptr %0, align 8
  %4 = getelementptr inbounds i8, ptr %0, i64 144
  store ptr %2, ptr %4, align 8
  %5 = getelementptr inbounds i8, ptr %0, i64 152
  store ptr null, ptr %5, align 8
  %6 = getelementptr inbounds i8, ptr %0, i64 160
  store i8 0, ptr %6, align 8
  %7 = getelementptr inbounds i8, ptr %0, i64 168
  store ptr %1, ptr %7, align 8
  %8 = getelementptr inbounds i8, ptr %2, i64 48
  %9 = load ptr, ptr %8, align 8
  %.not.i = icmp eq ptr %9, null
  br i1 %.not.i, label %29, label %10

10:                                               ; preds = %3
  %11 = getelementptr inbounds i8, ptr %9, i64 40
  %12 = load ptr, ptr %11, align 8
  %.not8.i = icmp eq ptr %12, null
  br i1 %.not8.i, label %29, label %13

13:                                               ; preds = %10
  %14 = getelementptr inbounds i8, ptr %12, i64 16
  %15 = getelementptr inbounds i8, ptr %0, i64 16
  %16 = load ptr, ptr %14, align 8
  %17 = getelementptr inbounds i8, ptr %12, i64 24
  %18 = ptrtoint ptr %15 to i64
  %19 = load ptr, ptr %17, align 8
  %.not.i.i = icmp eq ptr %16, %19
  br i1 %.not.i.i, label %_ZNK4ofbx8DataView8toStringILi128EEEvRAT__c.exit.i, label %.lr.ph.i.i

.lr.ph.i.i:                                       ; preds = %13, %.lr.ph.i.i
  %.012.i.i = phi ptr [ %21, %.lr.ph.i.i ], [ %16, %13 ]
  %.01011.i.i = phi ptr [ %22, %.lr.ph.i.i ], [ %15, %13 ]
  %20 = load i8, ptr %.012.i.i, align 1
  store i8 %20, ptr %.01011.i.i, align 1
  %21 = getelementptr inbounds i8, ptr %.012.i.i, i64 1
  %22 = getelementptr inbounds i8, ptr %.01011.i.i, i64 1
  %23 = load ptr, ptr %17, align 8
  %24 = icmp ne ptr %21, %23
  %25 = ptrtoint ptr %22 to i64
  %26 = sub i64 %25, %18
  %27 = icmp slt i64 %26, 127
  %28 = select i1 %24, i1 %27, i1 false
  br i1 %28, label %.lr.ph.i.i, label %_ZNK4ofbx8DataView8toStringILi128EEEvRAT__c.exit.i, !llvm.loop !7

_ZNK4ofbx8DataView8toStringILi128EEEvRAT__c.exit.i: ; preds = %.lr.ph.i.i, %13
  %.010.lcssa.i.i = phi ptr [ %15, %13 ], [ %22, %.lr.ph.i.i ]
  store i8 0, ptr %.010.lcssa.i.i, align 1
  br label %_ZN4ofbx6ObjectC2ERKNS_5SceneERKNS_8IElementE.exit

29:                                               ; preds = %10, %3
  %30 = getelementptr inbounds i8, ptr %0, i64 16
  store i8 0, ptr %30, align 8
  br label %_ZN4ofbx6ObjectC2ERKNS_5SceneERKNS_8IElementE.exit

_ZN4ofbx6ObjectC2ERKNS_5SceneERKNS_8IElementE.exit: ; preds = %_ZNK4ofbx8DataView8toStringILi128EEEvRAT__c.exit.i, %29
  store ptr getelementptr inbounds ({ [7 x ptr] }, ptr @_ZTVN4ofbx7TextureE, i64 0, i32 0, i64 2), ptr %0, align 8
  ret void
}